target datalayout = "e-m:e-p270:32:32-p271:32:32-p272:64:64-i64:64-i128:128-f80:128-n8:16:32:64-S128"
target triple = "x86_64-pc-linux-gnu"

%"struct.std::atomic" = type { %"struct.std::__atomic_base" }
%"struct.std::__atomic_base" = type { i8 }

@_ZN32pxrInternal_v0_24__pxrReserved__L17_archDebuggerWaitE = internal global %"struct.std::atomic" zeroinitializer, align 1

; Function Attrs: noreturn nounwind uwtable
define linkonce_odr hidden void @__clang_call_terminate(ptr noundef %0) #9 comdat {
  %2 = call ptr @__cxa_begin_catch(ptr %0) #10
  call void @_ZSt9terminatev() #14
  unreachable
}

; Function Attrs: mustprogress nounwind uwtable
define linkonce_odr noundef i32 @_ZStorSt12memory_orderSt23__memory_order_modifier(i32 noundef %0, i32 noundef %1) #6 comdat {
  %3 = alloca i32, align 4
  %4 = alloca i32, align 4
  store i32 %0, ptr %3, align 4
  store i32 %1, ptr %4, align 4
  %5 = load i32, ptr %3, align 4
  %6 = load i32, ptr %4, align 4
  %7 = or i32 %5, %6
  ret i32 %7
}

; Function Attrs: mustprogress nounwind uwtable
define linkonce_odr noundef i32 @_ZSt24__cmpexch_failure_order2St12memory_order(i32 noundef %0) #6 comdat {
  %2 = alloca i32, align 4
  store i32 %0, ptr %2, align 4
  %3 = load i32, ptr %2, align 4
  %4 = icmp eq i32 %3, 4
  br i1 %4, label %5, label %6

5:                                                ; preds = %1
  br label %14

6:                                                ; preds = %1
  %7 = load i32, ptr %2, align 4
  %8 = icmp eq i32 %7, 3
  br i1 %8, label %9, label %10

9:                                                ; preds = %6
  br label %12

10:                                               ; preds = %6
  %11 = load i32, ptr %2, align 4
  br label %12

12:                                               ; preds = %10, %9
  %13 = phi i32 [ 0, %9 ], [ %11, %10 ]
  br label %14

14:                                               ; preds = %12, %5
  %15 = phi i32 [ 2, %5 ], [ %13, %12 ]
  ret i32 %15
}

; Function Attrs: mustprogress nounwind uwtable
define linkonce_odr noundef i32 @_ZStanSt12memory_orderSt23__memory_order_modifier(i32 noundef %0, i32 noundef %1) #6 comdat {
  %3 = alloca i32, align 4
  %4 = alloca i32, align 4
  store i32 %0, ptr %3, align 4
  store i32 %1, ptr %4, align 4
  %5 = load i32, ptr %3, align 4
  %6 = load i32, ptr %4, align 4
  %7 = and i32 %5, %6
  ret i32 %7
}

; Function Attrs: mustprogress nounwind uwtable
define linkonce_odr noundef i32 @_ZSt23__cmpexch_failure_orderSt12memory_order(i32 noundef %0) #6 comdat personality ptr @__gxx_personality_v0 {
  %2 = alloca i32, align 4
  store i32 %0, ptr %2, align 4
  %3 = load i32, ptr %2, align 4
  %4 = call noundef i32 @_ZStanSt12memory_orderSt23__memory_order_modifier(i32 noundef %3, i32 noundef 65535)
  %5 = call noundef i32 @_ZSt24__cmpexch_failure_order2St12memory_order(i32 noundef %4) #10
  %6 = load i32, ptr %2, align 4
  %7 = call noundef i32 @_ZStanSt12memory_orderSt23__memory_order_modifier(i32 noundef %6, i32 noundef -65536)
  %8 = invoke noundef i32 @_ZStorSt12memory_orderSt23__memory_order_modifier(i32 noundef %5, i32 noundef %7)
          to label %9 unwind label %10

9:                                                ; preds = %1
  ret i32 %8

10:                                               ; preds = %1
  %11 = landingpad { ptr, i32 }
          catch ptr null
  %12 = extractvalue { ptr, i32 } %11, 0
  call void @__clang_call_terminate(ptr %12) #14
  unreachable
}

; Function Attrs: mustprogress nounwind uwtable
define linkonce_odr noundef zeroext i1 @_ZNSt6atomicIbE23compare_exchange_strongERbbSt12memory_order(ptr noundef nonnull align 1 dereferenceable(1) %0, ptr noundef nonnull align 1 dereferenceable(1) %1, i1 noundef zeroext %2, i32 noundef %3) #6 comdat align 2 {
  %5 = alloca ptr, align 8
  %6 = alloca ptr, align 8
  %7 = alloca i8, align 1
  %8 = alloca i32, align 4
  %9 = alloca i32, align 4
  %10 = alloca i8, align 1
  %11 = alloca i8, align 1
  %12 = alloca ptr, align 8
  %13 = alloca ptr, align 8
  %14 = alloca i8, align 1
  %15 = alloca i32, align 4
  %16 = alloca ptr, align 8
  %17 = alloca ptr, align 8
  %18 = alloca i8, align 1
  %19 = alloca i32, align 4
  store ptr %0, ptr %16, align 8
  store ptr %1, ptr %17, align 8
  %20 = zext i1 %2 to i8
  store i8 %20, ptr %18, align 1
  store i32 %3, ptr %19, align 4
  %21 = load ptr, ptr %16, align 8
  %22 = getelementptr inbounds nuw %"struct.std::atomic", ptr %21, i32 0, i32 0
  %23 = load ptr, ptr %17, align 8
  %24 = load i8, ptr %18, align 1
  %25 = trunc i8 %24 to i1
  %26 = load i32, ptr %19, align 4
  store ptr %22, ptr %12, align 8
  store ptr %23, ptr %13, align 8
  %27 = zext i1 %25 to i8
  store i8 %27, ptr %14, align 1
  store i32 %26, ptr %15, align 4
  %28 = load ptr, ptr %12, align 8
  %29 = load ptr, ptr %13, align 8
  %30 = load i8, ptr %14, align 1
  %31 = trunc i8 %30 to i1
  %32 = load i32, ptr %15, align 4
  %33 = load i32, ptr %15, align 4
  %34 = call noundef i32 @_ZSt23__cmpexch_failure_orderSt12memory_order(i32 noundef %33) #10
  store ptr %28, ptr %5, align 8
  store ptr %29, ptr %6, align 8
  %35 = zext i1 %31 to i8
  store i8 %35, ptr %7, align 1
  store i32 %32, ptr %8, align 4
  store i32 %34, ptr %9, align 4
  %36 = load ptr, ptr %5, align 8
  %37 = load i32, ptr %8, align 4
  %38 = load ptr, ptr %6, align 8
  %39 = load i8, ptr %7, align 1
  %40 = trunc i8 %39 to i1
  %41 = zext i1 %40 to i8
  store i8 %41, ptr %10, align 1
  %42 = load i32, ptr %9, align 4
  switch i32 %37, label %43 [
    i32 1, label %44
    i32 2, label %44
    i32 3, label %45
    i32 4, label %46
    i32 5, label %47
  ]

43:                                               ; preds = %4
  switch i32 %42, label %48 [
    i32 1, label %54
    i32 2, label %54
    i32 5, label %60
  ]

44:                                               ; preds = %4, %4
  switch i32 %42, label %76 [
    i32 1, label %82
    i32 2, label %82
    i32 5, label %88
  ]

45:                                               ; preds = %4
  switch i32 %42, label %104 [
    i32 1, label %110
    i32 2, label %110
    i32 5, label %116
  ]

46:                                               ; preds = %4
  switch i32 %42, label %132 [
    i32 1, label %138
    i32 2, label %138
    i32 5, label %144
  ]

47:                                               ; preds = %4
  switch i32 %42, label %160 [
    i32 1, label %166
    i32 2, label %166
    i32 5, label %172
  ]

48:                                               ; preds = %43
  %49 = load i8, ptr %38, align 1
  %50 = load i8, ptr %10, align 1
  %51 = cmpxchg ptr %36, i8 %49, i8 %50 monotonic monotonic, align 1
  %52 = extractvalue { i8, i1 } %51, 0
  %53 = extractvalue { i8, i1 } %51, 1
  br i1 %53, label %68, label %67

54:                                               ; preds = %43, %43
  %55 = load i8, ptr %38, align 1
  %56 = load i8, ptr %10, align 1
  %57 = cmpxchg ptr %36, i8 %55, i8 %56 monotonic acquire, align 1
  %58 = extractvalue { i8, i1 } %57, 0
  %59 = extractvalue { i8, i1 } %57, 1
  br i1 %59, label %71, label %70

60:                                               ; preds = %43
  %61 = load i8, ptr %38, align 1
  %62 = load i8, ptr %10, align 1
  %63 = cmpxchg ptr %36, i8 %61, i8 %62 monotonic seq_cst, align 1
  %64 = extractvalue { i8, i1 } %63, 0
  %65 = extractvalue { i8, i1 } %63, 1
  br i1 %65, label %74, label %73

66:                                               ; preds = %74, %71, %68
  br label %188

67:                                               ; preds = %48
  store i8 %52, ptr %38, align 1
  br label %68

68:                                               ; preds = %67, %48
  %69 = zext i1 %53 to i8
  store i8 %69, ptr %11, align 1
  br label %66

70:                                               ; preds = %54
  store i8 %58, ptr %38, align 1
  br label %71

71:                                               ; preds = %70, %54
  %72 = zext i1 %59 to i8
  store i8 %72, ptr %11, align 1
  br label %66

73:                                               ; preds = %60
  store i8 %64, ptr %38, align 1
  br label %74

74:                                               ; preds = %73, %60
  %75 = zext i1 %65 to i8
  store i8 %75, ptr %11, align 1
  br label %66

76:                                               ; preds = %44
  %77 = load i8, ptr %38, align 1
  %78 = load i8, ptr %10, align 1
  %79 = cmpxchg ptr %36, i8 %77, i8 %78 acquire monotonic, align 1
  %80 = extractvalue { i8, i1 } %79, 0
  %81 = extractvalue { i8, i1 } %79, 1
  br i1 %81, label %96, label %95

82:                                               ; preds = %44, %44
  %83 = load i8, ptr %38, align 1
  %84 = load i8, ptr %10, align 1
  %85 = cmpxchg ptr %36, i8 %83, i8 %84 acquire acquire, align 1
  %86 = extractvalue { i8, i1 } %85, 0
  %87 = extractvalue { i8, i1 } %85, 1
  br i1 %87, label %99, label %98

88:                                               ; preds = %44
  %89 = load i8, ptr %38, align 1
  %90 = load i8, ptr %10, align 1
  %91 = cmpxchg ptr %36, i8 %89, i8 %90 acquire seq_cst, align 1
  %92 = extractvalue { i8, i1 } %91, 0
  %93 = extractvalue { i8, i1 } %91, 1
  br i1 %93, label %102, label %101

94:                                               ; preds = %102, %99, %96
  br label %188

95:                                               ; preds = %76
  store i8 %80, ptr %38, align 1
  br label %96

96:                                               ; preds = %95, %76
  %97 = zext i1 %81 to i8
  store i8 %97, ptr %11, align 1
  br label %94

98:                                               ; preds = %82
  store i8 %86, ptr %38, align 1
  br label %99

99:                                               ; preds = %98, %82
  %100 = zext i1 %87 to i8
  store i8 %100, ptr %11, align 1
  br label %94

101:                                              ; preds = %88
  store i8 %92, ptr %38, align 1
  br label %102

102:                                              ; preds = %101, %88
  %103 = zext i1 %93 to i8
  store i8 %103, ptr %11, align 1
  br label %94

104:                                              ; preds = %45
  %105 = load i8, ptr %38, align 1
  %106 = load i8, ptr %10, align 1
  %107 = cmpxchg ptr %36, i8 %105, i8 %106 release monotonic, align 1
  %108 = extractvalue { i8, i1 } %107, 0
  %109 = extractvalue { i8, i1 } %107, 1
  br i1 %109, label %124, label %123

110:                                              ; preds = %45, %45
  %111 = load i8, ptr %38, align 1
  %112 = load i8, ptr %10, align 1
  %113 = cmpxchg ptr %36, i8 %111, i8 %112 release acquire, align 1
  %114 = extractvalue { i8, i1 } %113, 0
  %115 = extractvalue { i8, i1 } %113, 1
  br i1 %115, label %127, label %126

116:                                              ; preds = %45
  %117 = load i8, ptr %38, align 1
  %118 = load i8, ptr %10, align 1
  %119 = cmpxchg ptr %36, i8 %117, i8 %118 release seq_cst, align 1
  %120 = extractvalue { i8, i1 } %119, 0
  %121 = extractvalue { i8, i1 } %119, 1
  br i1 %121, label %130, label %129

122:                                              ; preds = %130, %127, %124
  br label %188

123:                                              ; preds = %104
  store i8 %108, ptr %38, align 1
  br label %124

124:                                              ; preds = %123, %104
  %125 = zext i1 %109 to i8
  store i8 %125, ptr %11, align 1
  br label %122

126:                                              ; preds = %110
  store i8 %114, ptr %38, align 1
  br label %127

127:                                              ; preds = %126, %110
  %128 = zext i1 %115 to i8
  store i8 %128, ptr %11, align 1
  br label %122

129:                                              ; preds = %116
  store i8 %120, ptr %38, align 1
  br label %130

130:                                              ; preds = %129, %116
  %131 = zext i1 %121 to i8
  store i8 %131, ptr %11, align 1
  br label %122

132:                                              ; preds = %46
  %133 = load i8, ptr %38, align 1
  %134 = load i8, ptr %10, align 1
  %135 = cmpxchg ptr %36, i8 %133, i8 %134 acq_rel monotonic, align 1
  %136 = extractvalue { i8, i1 } %135, 0
  %137 = extractvalue { i8, i1 } %135, 1
  br i1 %137, label %152, label %151

138:                                              ; preds = %46, %46
  %139 = load i8, ptr %38, align 1
  %140 = load i8, ptr %10, align 1
  %141 = cmpxchg ptr %36, i8 %139, i8 %140 acq_rel acquire, align 1
  %142 = extractvalue { i8, i1 } %141, 0
  %143 = extractvalue { i8, i1 } %141, 1
  br i1 %143, label %155, label %154

144:                                              ; preds = %46
  %145 = load i8, ptr %38, align 1
  %146 = load i8, ptr %10, align 1
  %147 = cmpxchg ptr %36, i8 %145, i8 %146 acq_rel seq_cst, align 1
  %148 = extractvalue { i8, i1 } %147, 0
  %149 = extractvalue { i8, i1 } %147, 1
  br i1 %149, label %158, label %157

150:                                              ; preds = %158, %155, %152
  br label %188

151:                                              ; preds = %132
  store i8 %136, ptr %38, align 1
  br label %152

152:                                              ; preds = %151, %132
  %153 = zext i1 %137 to i8
  store i8 %153, ptr %11, align 1
  br label %150

154:                                              ; preds = %138
  store i8 %142, ptr %38, align 1
  br label %155

155:                                              ; preds = %154, %138
  %156 = zext i1 %143 to i8
  store i8 %156, ptr %11, align 1
  br label %150

157:                                              ; preds = %144
  store i8 %148, ptr %38, align 1
  br label %158

158:                                              ; preds = %157, %144
  %159 = zext i1 %149 to i8
  store i8 %159, ptr %11, align 1
  br label %150

160:                                              ; preds = %47
  %161 = load i8, ptr %38, align 1
  %162 = load i8, ptr %10, align 1
  %163 = cmpxchg ptr %36, i8 %161, i8 %162 seq_cst monotonic, align 1
  %164 = extractvalue { i8, i1 } %163, 0
  %165 = extractvalue { i8, i1 } %163, 1
  br i1 %165, label %180, label %179

166:                                              ; preds = %47, %47
  %167 = load i8, ptr %38, align 1
  %168 = load i8, ptr %10, align 1
  %169 = cmpxchg ptr %36, i8 %167, i8 %168 seq_cst acquire, align 1
  %170 = extractvalue { i8, i1 } %169, 0
  %171 = extractvalue { i8, i1 } %169, 1
  br i1 %171, label %183, label %182

172:                                              ; preds = %47
  %173 = load i8, ptr %38, align 1
  %174 = load i8, ptr %10, align 1
  %175 = cmpxchg ptr %36, i8 %173, i8 %174 seq_cst seq_cst, align 1
  %176 = extractvalue { i8, i1 } %175, 0
  %177 = extractvalue { i8, i1 } %175, 1
  br i1 %177, label %186, label %185

178:                                              ; preds = %186, %183, %180
  br label %188

179:                                              ; preds = %160
  store i8 %164, ptr %38, align 1
  br label %180

180:                                              ; preds = %179, %160
  %181 = zext i1 %165 to i8
  store i8 %181, ptr %11, align 1
  br label %178

182:                                              ; preds = %166
  store i8 %170, ptr %38, align 1
  br label %183

183:                                              ; preds = %182, %166
  %184 = zext i1 %171 to i8
  store i8 %184, ptr %11, align 1
  br label %178

185:                                              ; preds = %172
  store i8 %176, ptr %38, align 1
  br label %186

186:                                              ; preds = %185, %172
  %187 = zext i1 %177 to i8
  store i8 %187, ptr %11, align 1
  br label %178

188:                                              ; preds = %178, %150, %122, %94, %66
  %189 = load i8, ptr %11, align 1
  %190 = trunc i8 %189 to i1
  ret i1 %190
}

; Function Attrs: mustprogress nounwind uwtable
define internal void @_ZN32pxrInternal_v0_24__pxrReserved__L24Arch_DebuggerTrapHandlerEi(i32 noundef %0) #6 {
  %2 = alloca i32, align 4
  %3 = alloca i8, align 1
  store i32 %0, ptr %2, align 4
  store i8 1, ptr %3, align 1
  %4 = call noundef zeroext i1 @_ZNSt6atomicIbE23compare_exchange_strongERbbSt12memory_order(ptr noundef nonnull align 1 dereferenceable(1) @_ZN32pxrInternal_v0_24__pxrReserved__L17_archDebuggerWaitE, ptr noundef nonnull align 1 dereferenceable(1) %3, i1 noundef zeroext false, i32 noundef 5) #10
  br i1 %4, label %5, label %7

5:                                                ; preds = %1
  %6 = call i32 @raise(i32 noundef 19) #10
  br label %7

7:                                                ; preds = %5, %1
  ret void
}