; Function Attrs: mustprogress nounwind uwtable
define internal void @_ZN32pxrInternal_v0_24__pxrReserved__L24Arch_DebuggerTrapHandlerEi(i32 %0) #15 personality ptr @__gxx_personality_v0 {
  %2 = cmpxchg ptr @_ZN32pxrInternal_v0_24__pxrReserved__L17_archDebuggerWaitE, i8 1, i8 0 seq_cst seq_cst, align 1
  %3 = extractvalue { i8, i1 } %2, 1
  br i1 %3, label %4, label %_ZNSt6atomicIbE23compare_exchange_strongERbbSt12memory_order.exit

4:                                                ; preds = %1
  %5 = tail call i32 @raise(i32 noundef 19) #17
  br label %_ZNSt6atomicIbE23compare_exchange_strongERbbSt12memory_order.exit

_ZNSt6atomicIbE23compare_exchange_strongERbbSt12memory_order.exit: ; preds = %1, %4
  ret void
}